; Function Attrs: mustprogress nounwind uwtable
define hidden noundef i64 @_ZNK20ParallelScavengeHeap4usedEv(ptr nocapture nonnull readnone align 8 %0) unnamed_addr #0 align 2 {
  %2 = load ptr, ptr @_ZN20ParallelScavengeHeap10_young_genE, align 8
  %3 = tail call noundef i64 @_ZNK10PSYoungGen13used_in_bytesEv(ptr noundef nonnull align 8 dereferenceable(104) %2) #15
  %4 = load ptr, ptr @_ZN20ParallelScavengeHeap8_old_genE, align 8
  %5 = getelementptr inbounds i8, ptr %4, i64 88
  %6 = load ptr, ptr %5, align 8
  %7 = load ptr, ptr %6, align 8
  %8 = getelementptr inbounds i8, ptr %7, i64 80
  %9 = load ptr, ptr %8, align 8
  %10 = tail call noundef i64 %9(ptr noundef nonnull align 8 dereferenceable(56) %6) #15
  %11 = shl i64 %10, 3
  %12 = add i64 %11, %3
  ret i64 %12
}